Certificate:
    Data:
        Version: 3 (0x2)
        Serial Number:
            0e:0b:cd:3d:ff:6b:3b:36:2e:32:08:b7:ed:6e:f2:47:0f:c8:f3:52
        Signature Algorithm: sha256WithRSAEncryption
        Issuer: C = ch, O = trustbroker.swiss, OU = demo, CN = demo-token-signer
        Validity
            Not Before: Mar 22 16:03:54 2024 GMT
            Not After : Mar 20 16:03:54 2034 GMT
        Subject: C = ch, O = trustbroker.swiss, OU = demo, CN = demo-token-signer
        Subject Public Key Info:
            Public Key Algorithm: rsaEncryption
                Public-Key: (2048 bit)
                Modulus:
                    00:e0:71:e2:70:e6:5b:ff:d0:cf:45:f6:ae:f6:4c:
                    7e:ae:42:b4:f1:3f:80:63:33:20:43:61:6c:78:6d:
                    5e:a4:06:98:e0:b0:3a:80:a1:d8:46:58:22:7f:a7:
                    d0:8d:b5:e7:3c:ee:15:93:84:f5:e9:4a:45:a5:eb:
                    5b:ad:14:c7:d5:95:39:bf:8b:a8:41:2d:4f:a2:d0:
                    5c:e3:13:ca:51:be:04:13:b5:bf:b4:c4:21:a1:e7:
                    50:63:c4:63:ce:cb:2b:08:e6:e5:86:d8:13:d9:3e:
                    91:96:10:28:d4:fa:1f:cf:55:2a:da:39:88:d5:d8:
                    2b:0e:f0:30:56:71:07:35:f9:54:6f:15:28:e9:4f:
                    0e:12:9a:61:9e:fc:56:e6:cc:ea:aa:df:e4:64:52:
                    b9:63:49:2d:99:16:d9:a9:7b:62:c8:80:1d:90:09:
                    9b:0a:bd:2c:1e:e8:ab:c9:6a:27:92:ad:54:45:7a:
                    6b:13:c8:b8:2a:73:a3:45:45:b8:23:b5:4a:11:44:
                    2f:f0:61:db:94:0f:a5:e8:31:fc:20:b8:81:f8:dc:
                    de:40:e3:51:0f:50:55:53:1e:ed:d0:cc:23:d7:f9:
                    9a:2c:6d:4b:8e:e9:f2:11:63:5f:27:4f:90:d8:c7:
                    e3:28:8f:c7:a8:5e:ff:ac:a9:7f:38:d7:fb:e7:f2:
                    36:a3
                Exponent: 65537 (0x10001)
        X509v3 extensions:
            X509v3 Subject Key Identifier: 
                71:E5:DA:58:1A:B0:9E:0A:58:C2:32:3C:BA:11:D2:3C:2A:38:39:4B
            X509v3 Authority Key Identifier: 
                71:E5:DA:58:1A:B0:9E:0A:58:C2:32:3C:BA:11:D2:3C:2A:38:39:4B
            X509v3 Basic Constraints: critical
                CA:TRUE
    Signature Algorithm: sha256WithRSAEncryption
    Signature Value:
        06:4f:fe:65:4f:c6:45:7c:5d:c8:33:75:c9:8a:62:ea:fa:85:
        af:69:a3:1b:f5:c1:6c:f0:dd:ab:8c:77:0d:86:1a:6d:cb:dc:
        62:f4:2c:a3:c2:4c:2b:86:fa:b1:0b:5e:19:ef:a4:05:2e:e3:
        c3:c6:05:9d:6a:c2:c0:8f:57:32:26:83:c7:f1:63:0b:25:37:
        ee:6b:7c:5e:f8:59:42:f2:43:7a:15:c1:67:b4:3d:7c:77:d9:
        2a:4d:8c:0c:fd:78:26:c7:07:dd:43:26:97:58:ec:b2:cb:32:
        68:1f:46:16:32:b0:8d:f2:f0:cb:ee:98:8e:d8:32:8e:bf:b0:
        54:06:41:8d:e7:36:ee:db:a3:ff:e6:30:b4:dd:d7:a3:b2:76:
        af:ac:d4:db:98:28:46:0a:c1:fa:5e:f3:d1:d2:83:c8:a4:cc:
        7c:e1:54:40:4a:21:c3:34:3f:c9:a2:c5:87:2b:3a:62:0c:48:
        39:fd:65:82:f5:7b:f2:e4:b5:71:7c:39:0d:67:3f:5a:5a:f5:
        f8:1f:27:b3:16:ae:19:32:21:ee:81:b4:ba:df:7d:c8:98:11:
        72:95:94:18:1b:4b:8e:09:06:b9:df:0b:54:01:9b:49:63:a4:
        52:25:48:8e:8d:ba:51:86:ca:52:aa:72:37:1b:88:7a:24:4b:
        76:80:92:8b
-----BEGIN CERTIFICATE-----
MIIDiTCCAnGgAwIBAgIUDgvNPf9rOzYuMgi37W7yRw/I81IwDQYJKoZIhvcNAQEL
BQAwVDELMAkGA1UEBhMCY2gxGjAYBgNVBAoMEXRydXN0YnJva2VyLnN3aXNzMQ0w
CwYDVQQLDARkZW1vMRowGAYDVQQDDBFkZW1vLXRva2VuLXNpZ25lcjAeFw0yNDAz
MjIxNjAzNTRaFw0zNDAzMjAxNjAzNTRaMFQxCzAJBgNVBAYTAmNoMRowGAYDVQQK
DBF0cnVzdGJyb2tlci5zd2lzczENMAsGA1UECwwEZGVtbzEaMBgGA1UEAwwRZGVt
by10b2tlbi1zaWduZXIwggEiMA0GCSqGSIb3DQEBAQUAA4IBDwAwggEKAoIBAQDg
ceJw5lv/0M9F9q72TH6uQrTxP4BjMyBDYWx4bV6kBpjgsDqAodhGWCJ/p9CNtec8
7hWThPXpSkWl61utFMfVlTm/i6hBLU+i0FzjE8pRvgQTtb+0xCGh51BjxGPOyysI
5uWG2BPZPpGWECjU+h/PVSraOYjV2CsO8DBWcQc1+VRvFSjpTw4SmmGe/FbmzOqq
3+RkUrljSS2ZFtmpe2LIgB2QCZsKvSwe6KvJaieSrVRFemsTyLgqc6NFRbgjtUoR
RC/wYduUD6XoMfwguIH43N5A41EPUFVTHu3QzCPX+ZosbUuO6fIRY18nT5DYx+Mo
j8eoXv+sqX841/vn8jajAgMBAAGjUzBRMB0GA1UdDgQWBBRx5dpYGrCeCljCMjy6
EdI8Kjg5SzAfBgNVHSMEGDAWgBRx5dpYGrCeCljCMjy6EdI8Kjg5SzAPBgNVHRMB
Af8EBTADAQH/MA0GCSqGSIb3DQEBCwUAA4IBAQAGT/5lT8ZFfF3IM3XJimLq+oWv
aaMb9cFs8N2rjHcNhhpty9xi9CyjwkwrhvqxC14Z76QFLuPDxgWdasLAj1cyJoPH
8WMLJTfua3xe+FlC8kN6FcFntD18d9kqTYwM/XgmxwfdQyaXWOyyyzJoH0YWMrCN
8vDL7piO2DKOv7BUBkGN5zbu26P/5jC03dejsnavrNTbmChGCsH6XvPR0oPIpMx8
4VRASiHDND/JosWHKzpiDEg5/WWC9Xvy5LVxfDkNZz9aWvX4HyezFq4ZMiHugbS6
333ImBFylZQYG0uOCQa53wtUAZtJY6RSJUiOjbpRhspSqnI3G4h6JEt2gJKL
-----END CERTIFICATE-----
-----BEGIN ENCRYPTED PRIVATE KEY-----
MIIFLTBXBgkqhkiG9w0BBQ0wSjApBgkqhkiG9w0BBQwwHAQIT4WgNWidOoACAggA
MAwGCCqGSIb3DQIJBQAwHQYJYIZIAWUDBAEqBBAgX5DmrVXYO0CV3Kfvz+elBIIE
0FsEVC03LGpIHMr6y7gpZbwOZ0zZRQ9Y+QAOEfL91Cju2z6JW5WhRkl60UuEMstR
5No0unTkUehtu8FnA0XzXZBxMVJY9IgJEf//CqWtSVF2qxIf+3ZJlmMn9Lvzx2QL
vMGpdY2NHQ9TJKk4ooJI6GwhunGUvsUNp+0r7L9T8J+5warIFaOIZHV+uG/KDyVl
Ra/K3XPAP2wt6iMEA195XtcwlRMN7RpztGGqZlhw4zLEYI400IcSglMR6KnGF/ml
TA3wESFfgrQDyGJrfyTAba2592e2YNO1wk67sSDsz7M9AtGu+hQcOUnIGG7kM9Ox
gkU2yv85nTUHwlnLYiH2psjNjzgNMiPJLPLH1E2nNdotduIZ00lgHjQroXSgzyoP
vr3sHRSYYSfDxlNl9TMoCOxKGgY8DeXNlTSFwzHc05eEAGBx9DE8jsZHgRPBWjPi
Qo/1xyFUrmZaq/kKyefTHDvSMq2ukQHGcrJt2LanYplS4xRqE8yZJM2ZJgeg/F0Q
QTf6BMr115bAyAX3Z7q8icZ4gMU3T771z6K3s8SGuaU5jnsYmyD+9mmvmYPiiLYT
E0C/s4Qk24vJmk74EX5zwAuBtH8zHGuIRdpgWPrbEcSVG5dBnDlEWcADGQTTiUYD
hyTg8NLu63WTXlQpFKqNdorZdc45ywDFn+Xzsw46+JZlzqAH+S+YafyRLswzsFGE
VLppjYuaTsnjSh9gkDpI9I7AtCdSxL60Rot4wJfosK2GyZY3Fvy4wfqin6ydf1Ka
xTUlaYRp6/us1rNt/DmkQWm/FRbk6sHXg+tAMWj4zET13d1BzqgvlfeFAlBs1rta
4t11OfduG54WGO3OSglvmermbgMGPFCMNJB8ecwB+uy3XAtTev0jLVP2Dt6CXWca
0qPcsQzZd2BvTTol+EphRqZpk5X3EBvkHadATYuNhhFwiugkKyYNSyNZOjd/X1Wg
Cpd8i9wkr/ny9C0bHhDOn12BqyLcCpZq4uuaXHBaUmj/elFfJsBCCHCHqP7Ly9Nt
9a18+QWtczpE/YjQHNwg9DqdF+YXWHbyThG0Z88FsWoZud6IB2VdQKnYhUogPWBe
zc/5pd/Bo856R3XxyLo8vulwCnB2BBNDTF+3UQ3/V0PKnpQLG8NeglJX78MuYBof
hr8fU5hWV25bjTOydMX5Ftx5uNeiQ9UF0tEr8CV9mPo4NGuJlGt3dG30ooR1orIU
x/xzuxcYfP6eFbtOAJM2/25KO7gtIzUtBg5T/XNtvuIngyqzR3JzzuleDDSx2EwF
hIV8wh/iNdtLlc3sZDBdmzaxL3R8RAO2c1wMJKVMkdtDlPj9qTUIAzrTbdU7N3Wx
33riVYR8kOT70+wXHZVYHUeducWThma4QAiprwr6YLC7G7Q1LSoWi1Z7KhJZI62s
s2BlAbPJP5LPXZOpLD5UYPtNPjx+IcsumAbtHkcE6fTXXtqqlrn8YnlcWzebeWKm
KqspxEngSnP02qN79OFTMNiHyoRXo0z3eL2e/+hERWxEBjYdVp3fsbjD5vFBiXy8
ztN8NKQJkwNhzue7vw7SMiITN3qn8zhqnxFiKZ/5xWl3Vu22K0fdZ+iUpH68szpt
0GfncFyG3EakSlcBND3aQvKC/+eAz3fpa4OUHpzv61XM
-----END ENCRYPTED PRIVATE KEY-----
